; Function Attrs: mustprogress uwtable
define void @_ZN8QuantLib23VolatilityTermStructureC2EjRKNS_8CalendarENS_21BusinessDayConventionERKNS_10DayCounterE(ptr noundef nonnull align 8 dereferenceable(68) %this, ptr noundef %vtt, i32 noundef %settlementDays, ptr nocapture noundef nonnull readonly align 8 dereferenceable(16) %cal, i32 noundef %bdc, ptr nocapture noundef nonnull readonly align 8 dereferenceable(16) %dc) unnamed_addr #3 align 2 personality ptr @__gxx_personality_v0 {
entry:
  %agg.tmp = alloca %"class.QuantLib::Calendar", align 8
  %agg.tmp3 = alloca %"class.QuantLib::DayCounter", align 8
  %0 = load ptr, ptr %cal, align 8, !tbaa !24
  store ptr %0, ptr %agg.tmp, align 8, !tbaa !24
  %pn.i.i = getelementptr inbounds nuw i8, ptr %agg.tmp, i64 8
  %pn3.i.i = getelementptr inbounds nuw i8, ptr %cal, i64 8
  %1 = load ptr, ptr %pn3.i.i, align 8, !tbaa !9
  store ptr %1, ptr %pn.i.i, align 8, !tbaa !9
  %cmp.not.i.i.i = icmp eq ptr %1, null
  br i1 %cmp.not.i.i.i, label %_ZN8QuantLib8CalendarC2ERKS0_.exit, label %if.then.i.i.i

if.then.i.i.i:                                    ; preds = %entry
  %use_count_.i.i.i.i = getelementptr inbounds nuw i8, ptr %1, i64 8
  %2 = atomicrmw add ptr %use_count_.i.i.i.i, i32 1 monotonic, align 4
  br label %_ZN8QuantLib8CalendarC2ERKS0_.exit

_ZN8QuantLib8CalendarC2ERKS0_.exit:               ; preds = %entry, %if.then.i.i.i
  %3 = load ptr, ptr %dc, align 8, !tbaa !3
  store ptr %3, ptr %agg.tmp3, align 8, !tbaa !3
  %pn.i.i1 = getelementptr inbounds nuw i8, ptr %agg.tmp3, i64 8
  %pn3.i.i2 = getelementptr inbounds nuw i8, ptr %dc, i64 8
  %4 = load ptr, ptr %pn3.i.i2, align 8, !tbaa !9
  store ptr %4, ptr %pn.i.i1, align 8, !tbaa !9
  %cmp.not.i.i.i3 = icmp eq ptr %4, null
  br i1 %cmp.not.i.i.i3, label %_ZN8QuantLib10DayCounterC2ERKS0_.exit, label %if.then.i.i.i4

if.then.i.i.i4:                                   ; preds = %_ZN8QuantLib8CalendarC2ERKS0_.exit
  %use_count_.i.i.i.i5 = getelementptr inbounds nuw i8, ptr %4, i64 8
  %5 = atomicrmw add ptr %use_count_.i.i.i.i5, i32 1 monotonic, align 4
  br label %_ZN8QuantLib10DayCounterC2ERKS0_.exit

_ZN8QuantLib10DayCounterC2ERKS0_.exit:            ; preds = %_ZN8QuantLib8CalendarC2ERKS0_.exit, %if.then.i.i.i4
  %6 = getelementptr inbounds i8, ptr %vtt, i64 8
  invoke void @_ZN8QuantLib13TermStructureC2EjNS_8CalendarENS_10DayCounterE(ptr noundef nonnull align 8 dereferenceable(64) %this, ptr noundef nonnull %6, i32 noundef %settlementDays, ptr noundef nonnull %agg.tmp, ptr noundef nonnull %agg.tmp3)
          to label %invoke.cont unwind label %lpad

invoke.cont:                                      ; preds = %_ZN8QuantLib10DayCounterC2ERKS0_.exit
  %7 = load ptr, ptr %pn.i.i1, align 8, !tbaa !9
  %cmp.not.i.i.i7 = icmp eq ptr %7, null
  br i1 %cmp.not.i.i.i7, label %_ZN8QuantLib10DayCounterD2Ev.exit, label %if.then.i.i.i8

if.then.i.i.i8:                                   ; preds = %invoke.cont
  %use_count_.i.i.i.i9 = getelementptr inbounds nuw i8, ptr %7, i64 8
  %8 = atomicrmw sub ptr %use_count_.i.i.i.i9, i32 1 acq_rel, align 4
  %cmp.i.i.i.i = icmp eq i32 %8, 1
  br i1 %cmp.i.i.i.i, label %if.then.i.i.i.i, label %_ZN8QuantLib10DayCounterD2Ev.exit

if.then.i.i.i.i:                                  ; preds = %if.then.i.i.i8
  %vtable.i.i.i.i = load ptr, ptr %7, align 8, !tbaa !10
  %vfn.i.i.i.i = getelementptr inbounds i8, ptr %vtable.i.i.i.i, i64 16
  %9 = load ptr, ptr %vfn.i.i.i.i, align 8
  invoke void %9(ptr noundef nonnull align 8 dereferenceable(16) %7)
          to label %.noexc.i.i.i unwind label %terminate.lpad.i.i.i

.noexc.i.i.i:                                     ; preds = %if.then.i.i.i.i
  %weak_count_.i.i.i.i.i = getelementptr inbounds nuw i8, ptr %7, i64 12
  %10 = atomicrmw sub ptr %weak_count_.i.i.i.i.i, i32 1 acq_rel, align 4
  %cmp.i.i.i.i.i = icmp eq i32 %10, 1
  br i1 %cmp.i.i.i.i.i, label %if.then.i.i.i.i.i, label %_ZN8QuantLib10DayCounterD2Ev.exit

if.then.i.i.i.i.i:                                ; preds = %.noexc.i.i.i
  %vtable.i.i.i.i.i = load ptr, ptr %7, align 8, !tbaa !10
  %vfn.i.i.i.i.i = getelementptr inbounds i8, ptr %vtable.i.i.i.i.i, i64 24
  %11 = load ptr, ptr %vfn.i.i.i.i.i, align 8
  invoke void %11(ptr noundef nonnull align 8 dereferenceable(16) %7)
          to label %_ZN8QuantLib10DayCounterD2Ev.exit unwind label %terminate.lpad.i.i.i

terminate.lpad.i.i.i:                             ; preds = %if.then.i.i.i.i.i, %if.then.i.i.i.i
  %12 = landingpad { ptr, i32 }
          catch ptr null
  %13 = extractvalue { ptr, i32 } %12, 0
  call void @__clang_call_terminate(ptr %13) #15
  unreachable

_ZN8QuantLib10DayCounterD2Ev.exit:                ; preds = %invoke.cont, %if.then.i.i.i8, %.noexc.i.i.i, %if.then.i.i.i.i.i
  %14 = load ptr, ptr %pn.i.i, align 8, !tbaa !9
  %cmp.not.i.i.i11 = icmp eq ptr %14, null
  br i1 %cmp.not.i.i.i11, label %_ZN8QuantLib8CalendarD2Ev.exit, label %if.then.i.i.i12

if.then.i.i.i12:                                  ; preds = %_ZN8QuantLib10DayCounterD2Ev.exit
  %use_count_.i.i.i.i13 = getelementptr inbounds nuw i8, ptr %14, i64 8
  %15 = atomicrmw sub ptr %use_count_.i.i.i.i13, i32 1 acq_rel, align 4
  %cmp.i.i.i.i14 = icmp eq i32 %15, 1
  br i1 %cmp.i.i.i.i14, label %if.then.i.i.i.i15, label %_ZN8QuantLib8CalendarD2Ev.exit

if.then.i.i.i.i15:                                ; preds = %if.then.i.i.i12
  %vtable.i.i.i.i16 = load ptr, ptr %14, align 8, !tbaa !10
  %vfn.i.i.i.i17 = getelementptr inbounds i8, ptr %vtable.i.i.i.i16, i64 16
  %16 = load ptr, ptr %vfn.i.i.i.i17, align 8
  invoke void %16(ptr noundef nonnull align 8 dereferenceable(16) %14)
          to label %.noexc.i.i.i19 unwind label %terminate.lpad.i.i.i18

.noexc.i.i.i19:                                   ; preds = %if.then.i.i.i.i15
  %weak_count_.i.i.i.i.i20 = getelementptr inbounds nuw i8, ptr %14, i64 12
  %17 = atomicrmw sub ptr %weak_count_.i.i.i.i.i20, i32 1 acq_rel, align 4
  %cmp.i.i.i.i.i21 = icmp eq i32 %17, 1
  br i1 %cmp.i.i.i.i.i21, label %if.then.i.i.i.i.i22, label %_ZN8QuantLib8CalendarD2Ev.exit

if.then.i.i.i.i.i22:                              ; preds = %.noexc.i.i.i19
  %vtable.i.i.i.i.i23 = load ptr, ptr %14, align 8, !tbaa !10
  %vfn.i.i.i.i.i24 = getelementptr inbounds i8, ptr %vtable.i.i.i.i.i23, i64 24
  %18 = load ptr, ptr %vfn.i.i.i.i.i24, align 8
  invoke void %18(ptr noundef nonnull align 8 dereferenceable(16) %14)
          to label %_ZN8QuantLib8CalendarD2Ev.exit unwind label %terminate.lpad.i.i.i18

terminate.lpad.i.i.i18:                           ; preds = %if.then.i.i.i.i.i22, %if.then.i.i.i.i15
  %19 = landingpad { ptr, i32 }
          catch ptr null
  %20 = extractvalue { ptr, i32 } %19, 0
  call void @__clang_call_terminate(ptr %20) #15
  unreachable

_ZN8QuantLib8CalendarD2Ev.exit:                   ; preds = %_ZN8QuantLib10DayCounterD2Ev.exit, %if.then.i.i.i12, %.noexc.i.i.i19, %if.then.i.i.i.i.i22
  %21 = load ptr, ptr %vtt, align 8
  store ptr %21, ptr %this, align 8, !tbaa !10
  %22 = getelementptr inbounds i8, ptr %vtt, i64 32
  %23 = load ptr, ptr %22, align 8
  %vbase.offset.ptr = getelementptr i8, ptr %21, i64 -24
  %vbase.offset = load i64, ptr %vbase.offset.ptr, align 8
  %add.ptr = getelementptr inbounds i8, ptr %this, i64 %vbase.offset
  store ptr %23, ptr %add.ptr, align 8, !tbaa !10
  %24 = getelementptr inbounds i8, ptr %vtt, i64 40
  %25 = load ptr, ptr %24, align 8
  %vtable4 = load ptr, ptr %this, align 8, !tbaa !10
  %vbase.offset.ptr5 = getelementptr i8, ptr %vtable4, i64 -32
  %vbase.offset6 = load i64, ptr %vbase.offset.ptr5, align 8
  %add.ptr7 = getelementptr inbounds i8, ptr %this, i64 %vbase.offset6
  store ptr %25, ptr %add.ptr7, align 8, !tbaa !10
  %bdc_ = getelementptr inbounds nuw i8, ptr %this, i64 64
  store i32 %bdc, ptr %bdc_, align 8, !tbaa !12
  ret void

lpad:                                             ; preds = %_ZN8QuantLib10DayCounterC2ERKS0_.exit
  %26 = landingpad { ptr, i32 }
          cleanup
  call void @_ZN8QuantLib10DayCounterD2Ev(ptr noundef nonnull align 8 dereferenceable(16) %agg.tmp3) #14
  call void @_ZN8QuantLib8CalendarD2Ev(ptr noundef nonnull align 8 dereferenceable(16) %agg.tmp) #14
  resume { ptr, i32 } %26
}